; Function Attrs: cold nounwind optsize uwtable
define internal range(i32 -12, 1) i32 @webp_decode_init(ptr noundef readonly captures(none) %0) #0 {
  %2 = getelementptr inbounds nuw i8, ptr %0, i64 32
  %3 = load ptr, ptr %2, align 8, !tbaa !4
  %4 = tail call ptr @av_packet_alloc() #11
  %5 = getelementptr inbounds nuw i8, ptr %3, i64 6600
  store ptr %4, ptr %5, align 8, !tbaa !27
  %.not = icmp eq ptr %4, null
  %. = select i1 %.not, i32 -12, i32 0
  ret i32 %.
}